; Function Attrs: mustprogress nofree norecurse nosync nounwind willreturn memory(argmem: write) uwtable
define hidden void @_ZN4cvc58internal13NodeConverterC2Eb(ptr noundef nonnull align 8 dereferenceable(233) %this, i1 noundef zeroext %forceIdem) unnamed_addr #3 align 2 {
entry:
  %frombool = zext i1 %forceIdem to i8
  store ptr getelementptr inbounds ({ [10 x ptr] }, ptr @_ZTVN4cvc58internal13NodeConverterE, i64 0, i32 0, i64 2), ptr %this, align 8
  %d_preCache = getelementptr inbounds i8, ptr %this, i64 8
  %_M_single_bucket.i.i = getelementptr inbounds i8, ptr %this, i64 56
  store ptr %_M_single_bucket.i.i, ptr %d_preCache, align 8
  %_M_bucket_count.i.i = getelementptr inbounds i8, ptr %this, i64 16
  store i64 1, ptr %_M_bucket_count.i.i, align 8
  %_M_before_begin.i.i = getelementptr inbounds i8, ptr %this, i64 24
  %_M_rehash_policy.i.i = getelementptr inbounds i8, ptr %this, i64 40
  tail call void @llvm.memset.p0.i64(ptr noundef nonnull align 8 dereferenceable(16) %_M_before_begin.i.i, i8 0, i64 16, i1 false)
  store float 1.000000e+00, ptr %_M_rehash_policy.i.i, align 8
  %_M_next_resize.i.i.i = getelementptr inbounds i8, ptr %this, i64 48
  tail call void @llvm.memset.p0.i64(ptr noundef nonnull align 8 dereferenceable(16) %_M_next_resize.i.i.i, i8 0, i64 16, i1 false)
  %d_cache = getelementptr inbounds i8, ptr %this, i64 64
  %_M_single_bucket.i.i1 = getelementptr inbounds i8, ptr %this, i64 112
  store ptr %_M_single_bucket.i.i1, ptr %d_cache, align 8
  %_M_bucket_count.i.i2 = getelementptr inbounds i8, ptr %this, i64 72
  store i64 1, ptr %_M_bucket_count.i.i2, align 8
  %_M_before_begin.i.i3 = getelementptr inbounds i8, ptr %this, i64 80
  %_M_rehash_policy.i.i4 = getelementptr inbounds i8, ptr %this, i64 96
  tail call void @llvm.memset.p0.i64(ptr noundef nonnull align 8 dereferenceable(16) %_M_before_begin.i.i3, i8 0, i64 16, i1 false)
  store float 1.000000e+00, ptr %_M_rehash_policy.i.i4, align 8
  %_M_next_resize.i.i.i5 = getelementptr inbounds i8, ptr %this, i64 104
  tail call void @llvm.memset.p0.i64(ptr noundef nonnull align 8 dereferenceable(16) %_M_next_resize.i.i.i5, i8 0, i64 16, i1 false)
  %d_preTCache = getelementptr inbounds i8, ptr %this, i64 120
  %_M_single_bucket.i.i6 = getelementptr inbounds i8, ptr %this, i64 168
  store ptr %_M_single_bucket.i.i6, ptr %d_preTCache, align 8
  %_M_bucket_count.i.i7 = getelementptr inbounds i8, ptr %this, i64 128
  store i64 1, ptr %_M_bucket_count.i.i7, align 8
  %_M_before_begin.i.i8 = getelementptr inbounds i8, ptr %this, i64 136
  %_M_rehash_policy.i.i9 = getelementptr inbounds i8, ptr %this, i64 152
  tail call void @llvm.memset.p0.i64(ptr noundef nonnull align 8 dereferenceable(16) %_M_before_begin.i.i8, i8 0, i64 16, i1 false)
  store float 1.000000e+00, ptr %_M_rehash_policy.i.i9, align 8
  %_M_next_resize.i.i.i10 = getelementptr inbounds i8, ptr %this, i64 160
  tail call void @llvm.memset.p0.i64(ptr noundef nonnull align 8 dereferenceable(16) %_M_next_resize.i.i.i10, i8 0, i64 16, i1 false)
  %d_tcache = getelementptr inbounds i8, ptr %this, i64 176
  %_M_single_bucket.i.i11 = getelementptr inbounds i8, ptr %this, i64 224
  store ptr %_M_single_bucket.i.i11, ptr %d_tcache, align 8
  %_M_bucket_count.i.i12 = getelementptr inbounds i8, ptr %this, i64 184
  store i64 1, ptr %_M_bucket_count.i.i12, align 8
  %_M_before_begin.i.i13 = getelementptr inbounds i8, ptr %this, i64 192
  %_M_rehash_policy.i.i14 = getelementptr inbounds i8, ptr %this, i64 208
  tail call void @llvm.memset.p0.i64(ptr noundef nonnull align 8 dereferenceable(16) %_M_before_begin.i.i13, i8 0, i64 16, i1 false)
  store float 1.000000e+00, ptr %_M_rehash_policy.i.i14, align 8
  %_M_next_resize.i.i.i15 = getelementptr inbounds i8, ptr %this, i64 216
  tail call void @llvm.memset.p0.i64(ptr noundef nonnull align 8 dereferenceable(16) %_M_next_resize.i.i.i15, i8 0, i64 16, i1 false)
  %d_forceIdem = getelementptr inbounds i8, ptr %this, i64 232
  store i8 %frombool, ptr %d_forceIdem, align 8
  ret void
}